target datalayout = "e-m:e-p270:32:32-p271:32:32-p272:64:64-i64:64-i128:128-f80:128-n8:16:32:64-S128"
target triple = "x86_64-pc-linux-gnu"

; Function Attrs: nounwind uwtable
define i32 @hwloc_set_area_membind(ptr noundef %0, ptr noundef %1, i64 noundef %2, ptr noundef %3, i32 noundef %4, i32 noundef %5) #0 {
  %7 = alloca ptr, align 8
  %8 = alloca ptr, align 8
  %9 = alloca i64, align 8
  %10 = alloca ptr, align 8
  %11 = alloca i32, align 4
  %12 = alloca i32, align 4
  %13 = alloca i32, align 4
  %14 = alloca ptr, align 8
  store ptr %0, ptr %7, align 8, !tbaa !3
  store ptr %1, ptr %8, align 8, !tbaa !48
  store i64 %2, ptr %9, align 8, !tbaa !40
  store ptr %3, ptr %10, align 8, !tbaa !8
  store i32 %4, ptr %11, align 4, !tbaa !10
  store i32 %5, ptr %12, align 4, !tbaa !10
  call void @llvm.lifetime.start.p0(i64 4, ptr %13) #9
  %15 = load i32, ptr %12, align 4, !tbaa !10
  %16 = and i32 %15, 32
  %17 = icmp ne i32 %16, 0
  br i1 %17, label %18, label %26

18:                                               ; preds = %6
  %19 = load ptr, ptr %7, align 8, !tbaa !3
  %20 = load ptr, ptr %8, align 8, !tbaa !48
  %21 = load i64, ptr %9, align 8, !tbaa !40
  %22 = load ptr, ptr %10, align 8, !tbaa !8
  %23 = load i32, ptr %11, align 4, !tbaa !10
  %24 = load i32, ptr %12, align 4, !tbaa !10
  %25 = call i32 @hwloc_set_area_membind_by_nodeset(ptr noundef %19, ptr noundef %20, i64 noundef %21, ptr noundef %22, i32 noundef %23, i32 noundef %24)
  store i32 %25, ptr %13, align 4, !tbaa !10
  br label %44

26:                                               ; preds = %6
  call void @llvm.lifetime.start.p0(i64 8, ptr %14) #9
  %27 = call noalias ptr @hwloc_bitmap_alloc()
  store ptr %27, ptr %14, align 8, !tbaa !8
  %28 = load ptr, ptr %7, align 8, !tbaa !3
  %29 = load ptr, ptr %14, align 8, !tbaa !8
  %30 = load ptr, ptr %10, align 8, !tbaa !8
  %31 = call i32 @hwloc_fix_membind_cpuset(ptr noundef %28, ptr noundef %29, ptr noundef %30)
  %32 = icmp ne i32 %31, 0
  br i1 %32, label %33, label %34

33:                                               ; preds = %26
  store i32 -1, ptr %13, align 4, !tbaa !10
  br label %42

34:                                               ; preds = %26
  %35 = load ptr, ptr %7, align 8, !tbaa !3
  %36 = load ptr, ptr %8, align 8, !tbaa !48
  %37 = load i64, ptr %9, align 8, !tbaa !40
  %38 = load ptr, ptr %14, align 8, !tbaa !8
  %39 = load i32, ptr %11, align 4, !tbaa !10
  %40 = load i32, ptr %12, align 4, !tbaa !10
  %41 = call i32 @hwloc_set_area_membind_by_nodeset(ptr noundef %35, ptr noundef %36, i64 noundef %37, ptr noundef %38, i32 noundef %39, i32 noundef %40)
  store i32 %41, ptr %13, align 4, !tbaa !10
  br label %42

42:                                               ; preds = %34, %33
  %43 = load ptr, ptr %14, align 8, !tbaa !8
  call void @hwloc_bitmap_free(ptr noundef %43)
  call void @llvm.lifetime.end.p0(i64 8, ptr %14) #9
  br label %44

44:                                               ; preds = %42, %18
  %45 = load i32, ptr %13, align 4, !tbaa !10
  call void @llvm.lifetime.end.p0(i64 4, ptr %13) #9
  ret i32 %45
}