; Function Attrs: nounwind uwtable
define i32 @hwloc_set_area_membind(ptr noundef %0, ptr noundef %1, i64 noundef %2, ptr noundef %3, i32 noundef %4, i32 noundef %5) local_unnamed_addr #0 {
  %7 = and i32 %5, 32
  %.not = icmp eq i32 %7, 0
  br i1 %.not, label %10, label %8

8:                                                ; preds = %6
  %9 = tail call fastcc i32 @hwloc_set_area_membind_by_nodeset(ptr noundef %0, ptr noundef %1, i64 noundef %2, ptr noundef %3, i32 noundef %4, i32 noundef %5)
  br label %16

10:                                               ; preds = %6
  %11 = tail call noalias ptr @hwloc_bitmap_alloc() #14
  %12 = tail call fastcc i32 @hwloc_fix_membind_cpuset(ptr noundef %0, ptr noundef %11, ptr noundef %3)
  %.not17 = icmp eq i32 %12, 0
  br i1 %.not17, label %13, label %15

13:                                               ; preds = %10
  %14 = tail call fastcc i32 @hwloc_set_area_membind_by_nodeset(ptr noundef %0, ptr noundef %1, i64 noundef %2, ptr noundef %11, i32 noundef %4, i32 noundef %5)
  br label %15

15:                                               ; preds = %10, %13
  %.1 = phi i32 [ %14, %13 ], [ -1, %10 ]
  tail call void @hwloc_bitmap_free(ptr noundef %11) #14
  br label %16

16:                                               ; preds = %15, %8
  %.0 = phi i32 [ %9, %8 ], [ %.1, %15 ]
  ret i32 %.0
}